; Function Attrs: nofree nosync nounwind memory(readwrite, inaccessiblemem: none) uwtable
define range(i32 0, 2) i32 @Gia_ManCheckSuppOverlap(ptr noundef readonly captures(none) %0, i32 noundef %1, i32 noundef %2) local_unnamed_addr #19 {
  %4 = icmp eq i32 %1, 0
  %5 = icmp eq i32 %2, 0
  %or.cond = or i1 %4, %5
  br i1 %or.cond, label %14, label %6

6:                                                ; preds = %3
  %7 = getelementptr i8, ptr %0, i64 32
  %.val16 = load ptr, ptr %7, align 8
  %8 = sext i32 %1 to i64
  %9 = getelementptr inbounds %struct.Gia_Obj_t_, ptr %.val16, i64 %8
  tail call void @Gia_ManCheckSuppMark_rec(ptr noundef %0, ptr noundef %9)
  %.val15 = load ptr, ptr %7, align 8
  %10 = sext i32 %2 to i64
  %11 = getelementptr inbounds %struct.Gia_Obj_t_, ptr %.val15, i64 %10
  %12 = tail call i32 @Gia_ManCheckSupp_rec(ptr noundef %0, ptr noundef %11)
  %13 = getelementptr inbounds %struct.Gia_Obj_t_, ptr %.val15, i64 %8
  tail call void @Gia_ManCheckSuppUnmark_rec(ptr noundef %0, ptr noundef %13)
  br label %14

14:                                               ; preds = %3, %6
  %.0 = phi i32 [ %12, %6 ], [ 0, %3 ]
  ret i32 %.0
}